; Function Attrs: mustprogress uwtable
define noundef i32 @_ZNK6casadi21GetNonzerosParamParam4evalEPPKdPPdPxS4_(ptr nocapture noundef nonnull readonly align 8 dereferenceable(64) %0, ptr nocapture noundef readonly %1, ptr nocapture noundef readonly %2, ptr noundef %3, ptr nocapture readnone %4) unnamed_addr #3 align 2 {
  %6 = load ptr, ptr %1, align 8
  %7 = getelementptr inbounds i8, ptr %1, i64 8
  %8 = load ptr, ptr %7, align 8
  %9 = getelementptr inbounds i8, ptr %1, i64 16
  %10 = load ptr, ptr %9, align 8
  %11 = load ptr, ptr %2, align 8
  %12 = getelementptr inbounds i8, ptr %0, i64 32
  %13 = getelementptr inbounds i8, ptr %0, i64 40
  %14 = load ptr, ptr %13, align 8
  %15 = load ptr, ptr %12, align 8
  %16 = ptrtoint ptr %14 to i64
  %17 = ptrtoint ptr %15 to i64
  %18 = sub i64 %16, %17
  %19 = ashr exact i64 %18, 3
  %.not.i.i.i = icmp ugt i64 %19, 1
  br i1 %.not.i.i.i, label %_ZNK6casadi6MXNode3depEx.exit, label %20

20:                                               ; preds = %5
  tail call void (ptr, ...) @_ZSt24__throw_out_of_range_fmtPKcz(ptr noundef nonnull @.str.65, i64 noundef 1, i64 noundef %19) #20
  unreachable

_ZNK6casadi6MXNode3depEx.exit:                    ; preds = %5
  %21 = getelementptr inbounds i8, ptr %15, i64 8
  %22 = tail call noundef nonnull align 8 dereferenceable(8) ptr @_ZNK6casadi2MX8sparsityEv(ptr noundef nonnull align 8 dereferenceable(8) %21)
  %23 = tail call noundef i64 @_ZNK6casadi8Sparsity3nnzEv(ptr noundef nonnull align 8 dereferenceable(8) %22)
  %24 = load ptr, ptr %13, align 8
  %25 = load ptr, ptr %12, align 8
  %26 = ptrtoint ptr %24 to i64
  %27 = ptrtoint ptr %25 to i64
  %28 = sub i64 %26, %27
  %29 = ashr exact i64 %28, 3
  %.not.i.i.i37 = icmp ugt i64 %29, 2
  br i1 %.not.i.i.i37, label %_ZNK6casadi6MXNode3depEx.exit38, label %30

30:                                               ; preds = %_ZNK6casadi6MXNode3depEx.exit
  tail call void (ptr, ...) @_ZSt24__throw_out_of_range_fmtPKcz(ptr noundef nonnull @.str.65, i64 noundef 2, i64 noundef %29) #20
  unreachable

_ZNK6casadi6MXNode3depEx.exit38:                  ; preds = %_ZNK6casadi6MXNode3depEx.exit
  %31 = getelementptr inbounds i8, ptr %25, i64 16
  %32 = tail call noundef nonnull align 8 dereferenceable(8) ptr @_ZNK6casadi2MX8sparsityEv(ptr noundef nonnull align 8 dereferenceable(8) %31)
  %33 = tail call noundef i64 @_ZNK6casadi8Sparsity3nnzEv(ptr noundef nonnull align 8 dereferenceable(8) %32)
  %34 = load ptr, ptr %13, align 8
  %35 = load ptr, ptr %12, align 8
  %.not.i.i.i39.not = icmp eq ptr %34, %35
  br i1 %.not.i.i.i39.not, label %36, label %_ZNK6casadi6MXNode3depEx.exit40

36:                                               ; preds = %_ZNK6casadi6MXNode3depEx.exit38
  tail call void (ptr, ...) @_ZSt24__throw_out_of_range_fmtPKcz(ptr noundef nonnull @.str.65, i64 noundef 0, i64 noundef 0) #20
  unreachable

_ZNK6casadi6MXNode3depEx.exit40:                  ; preds = %_ZNK6casadi6MXNode3depEx.exit38
  %37 = tail call noundef nonnull align 8 dereferenceable(8) ptr @_ZNK6casadi2MX8sparsityEv(ptr noundef nonnull align 8 dereferenceable(8) %35)
  %38 = tail call noundef i64 @_ZNK6casadi8Sparsity3nnzEv(ptr noundef nonnull align 8 dereferenceable(8) %37)
  %39 = icmp sgt i64 %23, 0
  br i1 %39, label %.lr.ph, label %.preheader

.preheader:                                       ; preds = %.lr.ph, %_ZNK6casadi6MXNode3depEx.exit40
  %40 = icmp sgt i64 %33, 0
  br i1 %40, label %.lr.ph50, label %._crit_edge51

.lr.ph50:                                         ; preds = %.preheader
  %41 = getelementptr inbounds i64, ptr %3, i64 %23
  %.not43 = icmp eq i64 %23, 0
  br i1 %.not43, label %._crit_edge51, label %.lr.ph46

.lr.ph:                                           ; preds = %_ZNK6casadi6MXNode3depEx.exit40, %.lr.ph
  %.042 = phi ptr [ %42, %.lr.ph ], [ %8, %_ZNK6casadi6MXNode3depEx.exit40 ]
  %.03341 = phi i64 [ %46, %.lr.ph ], [ 0, %_ZNK6casadi6MXNode3depEx.exit40 ]
  %42 = getelementptr inbounds i8, ptr %.042, i64 8
  %43 = load double, ptr %.042, align 8
  %44 = fptosi double %43 to i64
  %45 = getelementptr inbounds i64, ptr %3, i64 %.03341
  store i64 %44, ptr %45, align 8
  %46 = add nuw nsw i64 %.03341, 1
  %exitcond.not = icmp eq i64 %46, %23
  br i1 %exitcond.not, label %.preheader, label %.lr.ph, !llvm.loop !25

.lr.ph46:                                         ; preds = %.lr.ph50, %._crit_edge
  %.03149 = phi ptr [ %61, %._crit_edge ], [ %10, %.lr.ph50 ]
  %.03248 = phi i64 [ %62, %._crit_edge ], [ 0, %.lr.ph50 ]
  %.03447 = phi ptr [ %59, %._crit_edge ], [ %11, %.lr.ph50 ]
  %47 = load double, ptr %.03149, align 8
  %48 = fptosi double %47 to i64
  br label %49

49:                                               ; preds = %.lr.ph46, %57
  %.03045 = phi ptr [ %3, %.lr.ph46 ], [ %60, %57 ]
  %.144 = phi ptr [ %.03447, %.lr.ph46 ], [ %59, %57 ]
  %50 = load i64, ptr %.03045, align 8
  %51 = add nsw i64 %50, %48
  %52 = icmp sgt i64 %51, -1
  %53 = icmp slt i64 %51, %38
  %or.cond = and i1 %52, %53
  br i1 %or.cond, label %54, label %57

54:                                               ; preds = %49
  %55 = getelementptr inbounds double, ptr %6, i64 %51
  %56 = load double, ptr %55, align 8
  br label %57

57:                                               ; preds = %49, %54
  %58 = phi double [ %56, %54 ], [ 0x7FF8000000000000, %49 ]
  %59 = getelementptr inbounds i8, ptr %.144, i64 8
  store double %58, ptr %.144, align 8
  %60 = getelementptr inbounds i8, ptr %.03045, i64 8
  %.not = icmp eq ptr %60, %41
  br i1 %.not, label %._crit_edge, label %49, !llvm.loop !26

._crit_edge:                                      ; preds = %57
  %61 = getelementptr inbounds i8, ptr %.03149, i64 8
  %62 = add nuw nsw i64 %.03248, 1
  %exitcond53.not = icmp eq i64 %62, %33
  br i1 %exitcond53.not, label %._crit_edge51, label %.lr.ph46, !llvm.loop !27

._crit_edge51:                                    ; preds = %._crit_edge, %.lr.ph50, %.preheader
  ret i32 0
}